; Function Attrs: mustprogress nounwind uwtable
define hidden void @_ZN6google8protobuf2io25CopyingInputStreamAdaptorD2Ev(ptr noundef nonnull align 8 captures(none) dereferenceable(52) initializes((0, 8)) %0) unnamed_addr #8 align 2 personality ptr @__gxx_personality_v0 {
  store ptr getelementptr inbounds nuw inrange(-16, 48) (i8, ptr @_ZTVN6google8protobuf2io25CopyingInputStreamAdaptorE, i64 16), ptr %0, align 8, !tbaa !3
  %2 = getelementptr inbounds nuw i8, ptr %0, i64 16
  %3 = load i8, ptr %2, align 8, !tbaa !46, !range !51, !noundef !52
  %4 = trunc nuw i8 %3 to i1
  br i1 %4, label %5, label %13

5:                                                ; preds = %1
  %6 = getelementptr inbounds nuw i8, ptr %0, i64 8
  %7 = load ptr, ptr %6, align 8, !tbaa !36
  %8 = icmp eq ptr %7, null
  br i1 %8, label %13, label %9

9:                                                ; preds = %5
  %10 = load ptr, ptr %7, align 8, !tbaa !3
  %11 = getelementptr inbounds nuw i8, ptr %10, i64 8
  %12 = load ptr, ptr %11, align 8
  tail call void %12(ptr noundef nonnull align 8 dereferenceable(8) %7) #19
  br label %13

13:                                               ; preds = %5, %9, %1
  %14 = getelementptr inbounds nuw i8, ptr %0, i64 32
  %15 = load ptr, ptr %14, align 8, !tbaa !53
  %.not.i = icmp eq ptr %15, null
  br i1 %.not.i, label %_ZNSt10unique_ptrIA_hSt14default_deleteIS0_EED2Ev.exit, label %_ZNKSt14default_deleteIA_hEclIhEENSt9enable_ifIXsr14is_convertibleIPA_T_PS0_EE5valueEvE4typeEPS4_.exit.i

_ZNKSt14default_deleteIA_hEclIhEENSt9enable_ifIXsr14is_convertibleIPA_T_PS0_EE5valueEvE4typeEPS4_.exit.i: ; preds = %13
  tail call void @_ZdaPv(ptr noundef nonnull %15) #20
  br label %_ZNSt10unique_ptrIA_hSt14default_deleteIS0_EED2Ev.exit

_ZNSt10unique_ptrIA_hSt14default_deleteIS0_EED2Ev.exit: ; preds = %13, %_ZNKSt14default_deleteIA_hEclIhEENSt9enable_ifIXsr14is_convertibleIPA_T_PS0_EE5valueEvE4typeEPS4_.exit.i
  store ptr null, ptr %14, align 8, !tbaa !53
  ret void
}